target datalayout = "e-m:e-p270:32:32-p271:32:32-p272:64:64-i64:64-i128:128-f80:128-n8:16:32:64-S128"
target triple = "x86_64-pc-linux-gnu"

@.str = private unnamed_addr constant [26 x i8] c"../qemu/tcg/tcg-op-gvec.c\00", align 1
@__func__.dup_const = private unnamed_addr constant [10 x i8] c"dup_const\00", align 1

; Function Attrs: nounwind sspstrong uwtable
define dso_local i64 @dup_const(i32 noundef %0, i64 noundef %1) #0 {
  %3 = alloca i64, align 8
  %4 = alloca i32, align 4
  %5 = alloca i64, align 8
  store i32 %0, ptr %4, align 4
  store i64 %1, ptr %5, align 8
  %6 = load i32, ptr %4, align 4
  switch i32 %6, label %24 [
    i32 0, label %7
    i32 1, label %12
    i32 2, label %17
    i32 3, label %22
  ]

7:                                                ; preds = %2
  %8 = load i64, ptr %5, align 8
  %9 = trunc i64 %8 to i8
  %10 = zext i8 %9 to i64
  %11 = mul i64 72340172838076673, %10
  store i64 %11, ptr %3, align 8
  br label %27

12:                                               ; preds = %2
  %13 = load i64, ptr %5, align 8
  %14 = trunc i64 %13 to i16
  %15 = zext i16 %14 to i64
  %16 = mul i64 281479271743489, %15
  store i64 %16, ptr %3, align 8
  br label %27

17:                                               ; preds = %2
  %18 = load i64, ptr %5, align 8
  %19 = trunc i64 %18 to i32
  %20 = zext i32 %19 to i64
  %21 = mul i64 4294967297, %20
  store i64 %21, ptr %3, align 8
  br label %27

22:                                               ; preds = %2
  %23 = load i64, ptr %5, align 8
  store i64 %23, ptr %3, align 8
  br label %27

24:                                               ; preds = %2
  br label %25

25:                                               ; preds = %24
  call void @g_assertion_message_expr(ptr noundef null, ptr noundef @.str, i32 noundef 398, ptr noundef @__func__.dup_const, ptr noundef null) #12
  unreachable

26:                                               ; No predecessors!
  br label %27

27:                                               ; preds = %7, %12, %17, %22, %26
  %28 = load i64, ptr %3, align 8
  ret i64 %28
}