; Function Attrs: nounwind sspstrong uwtable
define dso_local i64 @dup_const(i32 noundef %0, i64 noundef %1) local_unnamed_addr #2 {
  switch i32 %0, label %12 [
    i32 0, label %3
    i32 1, label %6
    i32 2, label %9
    i32 3, label %13
  ]

3:                                                ; preds = %2
  %4 = and i64 %1, 255
  %5 = mul nuw i64 %4, 72340172838076673
  br label %13

6:                                                ; preds = %2
  %7 = and i64 %1, 65535
  %8 = mul nuw i64 %7, 281479271743489
  br label %13

9:                                                ; preds = %2
  %10 = and i64 %1, 4294967295
  %11 = mul nuw i64 %10, 4294967297
  br label %13

12:                                               ; preds = %2
  tail call void @g_assertion_message_expr(ptr noundef null, ptr noundef nonnull @.str, i32 noundef 398, ptr noundef nonnull @__func__.dup_const, ptr noundef null) #11
  unreachable

13:                                               ; preds = %2, %9, %6, %3
  %.0 = phi i64 [ %11, %9 ], [ %8, %6 ], [ %5, %3 ], [ %1, %2 ]
  ret i64 %.0
}